; Function Attrs: nounwind uwtable
define internal fastcc noundef ptr @_readCreateStmt() unnamed_addr #0 {
  %1 = alloca i32, align 4
  %2 = tail call noundef ptr @palloc0(i64 noundef 112) #10
  store i32 159, ptr %2, align 4
  call void @llvm.lifetime.start.p0(i64 4, ptr nonnull %1) #10
  %3 = call ptr @pg_strtok(ptr noundef nonnull %1) #10
  %4 = call ptr @nodeRead(ptr noundef null, i32 noundef 0) #10
  %5 = getelementptr inbounds nuw i8, ptr %2, i64 8
  store ptr %4, ptr %5, align 8
  %6 = call ptr @pg_strtok(ptr noundef nonnull %1) #10
  %7 = call ptr @nodeRead(ptr noundef null, i32 noundef 0) #10
  %8 = getelementptr inbounds nuw i8, ptr %2, i64 16
  store ptr %7, ptr %8, align 8
  %9 = call ptr @pg_strtok(ptr noundef nonnull %1) #10
  %10 = call ptr @nodeRead(ptr noundef null, i32 noundef 0) #10
  %11 = getelementptr inbounds nuw i8, ptr %2, i64 24
  store ptr %10, ptr %11, align 8
  %12 = call ptr @pg_strtok(ptr noundef nonnull %1) #10
  %13 = call ptr @nodeRead(ptr noundef null, i32 noundef 0) #10
  %14 = getelementptr inbounds nuw i8, ptr %2, i64 32
  store ptr %13, ptr %14, align 8
  %15 = call ptr @pg_strtok(ptr noundef nonnull %1) #10
  %16 = call ptr @nodeRead(ptr noundef null, i32 noundef 0) #10
  %17 = getelementptr inbounds nuw i8, ptr %2, i64 40
  store ptr %16, ptr %17, align 8
  %18 = call ptr @pg_strtok(ptr noundef nonnull %1) #10
  %19 = call ptr @nodeRead(ptr noundef null, i32 noundef 0) #10
  %20 = getelementptr inbounds nuw i8, ptr %2, i64 48
  store ptr %19, ptr %20, align 8
  %21 = call ptr @pg_strtok(ptr noundef nonnull %1) #10
  %22 = call ptr @nodeRead(ptr noundef null, i32 noundef 0) #10
  %23 = getelementptr inbounds nuw i8, ptr %2, i64 56
  store ptr %22, ptr %23, align 8
  %24 = call ptr @pg_strtok(ptr noundef nonnull %1) #10
  %25 = call ptr @nodeRead(ptr noundef null, i32 noundef 0) #10
  %26 = getelementptr inbounds nuw i8, ptr %2, i64 64
  store ptr %25, ptr %26, align 8
  %27 = call ptr @pg_strtok(ptr noundef nonnull %1) #10
  %28 = call ptr @nodeRead(ptr noundef null, i32 noundef 0) #10
  %29 = getelementptr inbounds nuw i8, ptr %2, i64 72
  store ptr %28, ptr %29, align 8
  %30 = call ptr @pg_strtok(ptr noundef nonnull %1) #10
  %31 = call ptr @pg_strtok(ptr noundef nonnull %1) #10
  %32 = call i64 @strtol(ptr noundef nonnull captures(none) %31, ptr noundef null, i32 noundef 10) #10
  %33 = trunc i64 %32 to i32
  %34 = getelementptr inbounds nuw i8, ptr %2, i64 80
  store i32 %33, ptr %34, align 8
  %35 = call ptr @pg_strtok(ptr noundef nonnull %1) #10
  %36 = call ptr @pg_strtok(ptr noundef nonnull %1) #10
  %37 = load i32, ptr %1, align 4
  switch i32 %37, label %47 [
    i32 0, label %nullable_string.exit
    i32 2, label %38
  ]

38:                                               ; preds = %0
  %39 = load i8, ptr %36, align 1
  %40 = icmp eq i8 %39, 34
  br i1 %40, label %41, label %47

41:                                               ; preds = %38
  %42 = getelementptr inbounds nuw i8, ptr %36, i64 1
  %43 = load i8, ptr %42, align 1
  %44 = icmp eq i8 %43, 34
  br i1 %44, label %45, label %47

45:                                               ; preds = %41
  %46 = call ptr @pstrdup(ptr noundef nonnull @.str.326) #10
  br label %nullable_string.exit

47:                                               ; preds = %41, %38, %0
  %48 = call ptr @debackslash(ptr noundef %36, i32 noundef %37) #10
  br label %nullable_string.exit

nullable_string.exit:                             ; preds = %0, %45, %47
  %.0.i = phi ptr [ %46, %45 ], [ %48, %47 ], [ null, %0 ]
  %49 = getelementptr inbounds nuw i8, ptr %2, i64 88
  store ptr %.0.i, ptr %49, align 8
  %50 = call ptr @pg_strtok(ptr noundef nonnull %1) #10
  %51 = call ptr @pg_strtok(ptr noundef nonnull %1) #10
  %52 = load i32, ptr %1, align 4
  switch i32 %52, label %62 [
    i32 0, label %nullable_string.exit19
    i32 2, label %53
  ]

53:                                               ; preds = %nullable_string.exit
  %54 = load i8, ptr %51, align 1
  %55 = icmp eq i8 %54, 34
  br i1 %55, label %56, label %62

56:                                               ; preds = %53
  %57 = getelementptr inbounds nuw i8, ptr %51, i64 1
  %58 = load i8, ptr %57, align 1
  %59 = icmp eq i8 %58, 34
  br i1 %59, label %60, label %62

60:                                               ; preds = %56
  %61 = call ptr @pstrdup(ptr noundef nonnull @.str.326) #10
  br label %nullable_string.exit19

62:                                               ; preds = %56, %53, %nullable_string.exit
  %63 = call ptr @debackslash(ptr noundef %51, i32 noundef %52) #10
  br label %nullable_string.exit19

nullable_string.exit19:                           ; preds = %nullable_string.exit, %60, %62
  %.0.i18 = phi ptr [ %61, %60 ], [ %63, %62 ], [ null, %nullable_string.exit ]
  %64 = getelementptr inbounds nuw i8, ptr %2, i64 96
  store ptr %.0.i18, ptr %64, align 8
  %65 = call ptr @pg_strtok(ptr noundef nonnull %1) #10
  %66 = call ptr @pg_strtok(ptr noundef nonnull %1) #10
  %67 = load i8, ptr %66, align 1
  %68 = icmp eq i8 %67, 116
  %69 = getelementptr inbounds nuw i8, ptr %2, i64 104
  %70 = zext i1 %68 to i8
  store i8 %70, ptr %69, align 8
  call void @llvm.lifetime.end.p0(i64 4, ptr nonnull %1) #10
  ret ptr %2
}